target datalayout = "e-m:e-p270:32:32-p271:32:32-p272:64:64-i64:64-i128:128-f80:128-n8:16:32:64-S128"
target triple = "x86_64-pc-linux-gnu"

%"class.sat::probing" = type { ptr, i32, %"class.sat::literal_set", %class.svector.2, i32, i8, i32, i8, i8, i64, i32, %class.vector.4, %class.svector.5, %"class.sat::big" }
%"class.sat::literal_set" = type { %class.tracked_uint_set }
%class.tracked_uint_set = type { %class.svector, %class.svector.0 }
%class.svector = type { %class.vector }
%class.vector = type { ptr }
%class.svector.0 = type { %class.vector.1 }
%class.vector.1 = type { ptr }
%class.svector.2 = type { %class.vector.3 }
%class.vector.3 = type { ptr }
%class.vector.4 = type { ptr }
%class.svector.5 = type { %class.vector.6 }
%class.vector.6 = type { ptr }
%"class.sat::big" = type { ptr, i32, %class.vector.7, %class.svector.8, %class.svector.10, %class.svector.10, %class.svector.2, %class.svector.2, i8, i8, %class.vector.7 }
%class.svector.8 = type { %class.vector.9 }
%class.vector.9 = type { ptr }
%class.svector.10 = type { %class.vector.11 }
%class.vector.11 = type { ptr }
%class.vector.7 = type { ptr }

; Function Attrs: mustprogress uwtable
define hidden void @_ZN3sat7probing7processEj(ptr noundef nonnull align 8 dereferenceable(168) %0, i32 noundef %1) #4 align 2 {
  %3 = alloca ptr, align 8
  %4 = alloca i32, align 4
  %5 = alloca i32, align 4
  %6 = alloca i32, align 4
  store ptr %0, ptr %3, align 8, !tbaa !3
  store i32 %1, ptr %4, align 4, !tbaa !69
  %7 = load ptr, ptr %3, align 8
  call void @llvm.lifetime.start.p0(i64 4, ptr %5) #3
  %8 = getelementptr inbounds nuw %"class.sat::probing", ptr %7, i32 0, i32 4
  %9 = load i32, ptr %8, align 8, !tbaa !43
  store i32 %9, ptr %5, align 4, !tbaa !69
  call void @llvm.lifetime.start.p0(i64 4, ptr %6) #3
  %10 = getelementptr inbounds nuw %"class.sat::probing", ptr %7, i32 0, i32 10
  %11 = load i32, ptr %10, align 8, !tbaa !57
  store i32 %11, ptr %6, align 4, !tbaa !69
  %12 = load i32, ptr %4, align 4, !tbaa !69
  call void @_ZN3sat7probing12process_coreEj(ptr noundef nonnull align 8 dereferenceable(168) %7, i32 noundef %12)
  %13 = getelementptr inbounds nuw %"class.sat::probing", ptr %7, i32 0, i32 10
  %14 = load i32, ptr %13, align 8, !tbaa !57
  %15 = load i32, ptr %6, align 4, !tbaa !69
  %16 = icmp ugt i32 %14, %15
  br i1 %16, label %17, label %20

17:                                               ; preds = %2
  %18 = load i32, ptr %5, align 4, !tbaa !69
  %19 = getelementptr inbounds nuw %"class.sat::probing", ptr %7, i32 0, i32 4
  store i32 %18, ptr %19, align 8, !tbaa !43
  br label %20

20:                                               ; preds = %17, %2
  call void @llvm.lifetime.end.p0(i64 4, ptr %6) #3
  call void @llvm.lifetime.end.p0(i64 4, ptr %5) #3
  ret void
}