; Function Attrs: mustprogress uwtable
define hidden void @_ZN3sat7probing7processEj(ptr noundef nonnull align 8 dereferenceable(168) %0, i32 noundef %1) local_unnamed_addr #3 align 2 {
  %3 = getelementptr inbounds nuw i8, ptr %0, i64 40
  %4 = load i32, ptr %3, align 8, !tbaa !39
  %5 = getelementptr inbounds nuw i8, ptr %0, i64 64
  %6 = load i32, ptr %5, align 8, !tbaa !8
  tail call void @_ZN3sat7probing12process_coreEj(ptr noundef nonnull align 8 dereferenceable(168) %0, i32 noundef %1)
  %7 = load i32, ptr %5, align 8, !tbaa !8
  %8 = icmp ugt i32 %7, %6
  br i1 %8, label %9, label %10

9:                                                ; preds = %2
  store i32 %4, ptr %3, align 8, !tbaa !39
  br label %10

10:                                               ; preds = %9, %2
  ret void
}